target datalayout = "e-m:e-p270:32:32-p271:32:32-p272:64:64-i64:64-i128:128-f80:128-n8:16:32:64-S128"
target triple = "x86_64-unknown-linux-gnu"

%"class.std::_Sp_counted_base" = type { ptr, i32, i32 }
%"class.std::__weak_count" = type { ptr }
%"class.std::_Sp_counted_ptr_inplace.621" = type { %"class.std::_Sp_counted_base", %"class.std::_Sp_counted_ptr_inplace<node::(anonymous namespace)::EmptyEntry::EmptyReader, std::allocator<void>, __gnu_cxx::_S_atomic>::_Impl" }
%"class.std::_Sp_counted_ptr_inplace<node::(anonymous namespace)::EmptyEntry::EmptyReader, std::allocator<void>, __gnu_cxx::_S_atomic>::_Impl" = type { %"struct.__gnu_cxx::__aligned_buffer.622" }
%"struct.__gnu_cxx::__aligned_buffer.622" = type { %"union.std::aligned_storage<40, 8>::type" }
%"union.std::aligned_storage<40, 8>::type" = type { [40 x i8] }
%"class.std::enable_shared_from_this.625" = type { %"class.std::weak_ptr.626" }
%"class.std::weak_ptr.626" = type { %"class.std::__weak_ptr.627" }
%"class.std::__weak_ptr.627" = type { ptr, %"class.std::__weak_count" }

@__libc_single_threaded = external global i8, align 1

; Function Attrs: mustprogress nounwind uwtable
define linkonce_odr dso_local void @_ZNSt16_Sp_counted_baseILN9__gnu_cxx12_Lock_policyE2EE15_M_weak_releaseEv(ptr noundef nonnull align 8 dereferenceable(16) %this) #4 comdat align 2 {
entry:
  %__mem.addr.i4 = alloca ptr, align 8
  %__val.addr.i5 = alloca i32, align 4
  %.atomictmp.i = alloca i32, align 4
  %atomic-temp.i = alloca i32, align 4
  %__mem.addr.i2 = alloca ptr, align 8
  %__val.addr.i3 = alloca i32, align 4
  %__result.i = alloca i32, align 4
  %retval.i = alloca i32, align 4
  %__mem.addr.i = alloca ptr, align 8
  %__val.addr.i = alloca i32, align 4
  %this.addr = alloca ptr, align 8
  store ptr %this, ptr %this.addr, align 8
  %this1 = load ptr, ptr %this.addr, align 8
  %_M_weak_count = getelementptr inbounds %"class.std::_Sp_counted_base", ptr %this1, i32 0, i32 2
  store ptr %_M_weak_count, ptr %__mem.addr.i, align 8
  store i32 -1, ptr %__val.addr.i, align 4
  %0 = load i8, ptr @__libc_single_threaded, align 1
  %tobool.i = icmp ne i8 %0, 0
  br i1 %tobool.i, label %if.then.i, label %if.else.i

if.then.i:                                        ; preds = %entry
  %1 = load ptr, ptr %__mem.addr.i, align 8
  %2 = load i32, ptr %__val.addr.i, align 4
  store ptr %1, ptr %__mem.addr.i2, align 8
  store i32 %2, ptr %__val.addr.i3, align 4
  %3 = load ptr, ptr %__mem.addr.i2, align 8
  %4 = load i32, ptr %3, align 4
  store i32 %4, ptr %__result.i, align 4
  %5 = load i32, ptr %__val.addr.i3, align 4
  %6 = load ptr, ptr %__mem.addr.i2, align 8
  %7 = load i32, ptr %6, align 4
  %add.i = add nsw i32 %7, %5
  store i32 %add.i, ptr %6, align 4
  %8 = load i32, ptr %__result.i, align 4
  store i32 %8, ptr %retval.i, align 4
  br label %_ZN9__gnu_cxx27__exchange_and_add_dispatchEPii.exit

if.else.i:                                        ; preds = %entry
  %9 = load ptr, ptr %__mem.addr.i, align 8
  %10 = load i32, ptr %__val.addr.i, align 4
  store ptr %9, ptr %__mem.addr.i4, align 8
  store i32 %10, ptr %__val.addr.i5, align 4
  %11 = load ptr, ptr %__mem.addr.i4, align 8
  %12 = load i32, ptr %__val.addr.i5, align 4
  store i32 %12, ptr %.atomictmp.i, align 4
  %13 = load i32, ptr %.atomictmp.i, align 4
  %14 = atomicrmw volatile add ptr %11, i32 %13 acq_rel, align 4
  store i32 %14, ptr %atomic-temp.i, align 4
  %15 = load i32, ptr %atomic-temp.i, align 4
  store i32 %15, ptr %retval.i, align 4
  br label %_ZN9__gnu_cxx27__exchange_and_add_dispatchEPii.exit

_ZN9__gnu_cxx27__exchange_and_add_dispatchEPii.exit: ; preds = %if.else.i, %if.then.i
  %16 = load i32, ptr %retval.i, align 4
  %cmp = icmp eq i32 %16, 1
  br i1 %cmp, label %if.then, label %if.end

if.then:                                          ; preds = %_ZN9__gnu_cxx27__exchange_and_add_dispatchEPii.exit
  %vtable = load ptr, ptr %this1, align 8
  %vfn = getelementptr inbounds ptr, ptr %vtable, i64 3
  %17 = load ptr, ptr %vfn, align 8
  call void %17(ptr noundef nonnull align 8 dereferenceable(16) %this1) #3
  br label %if.end

if.end:                                           ; preds = %if.then, %_ZN9__gnu_cxx27__exchange_and_add_dispatchEPii.exit
  ret void
}

; Function Attrs: mustprogress nounwind uwtable
define linkonce_odr dso_local void @_ZNSt12__weak_countILN9__gnu_cxx12_Lock_policyE2EED2Ev(ptr noundef nonnull align 8 dereferenceable(8) %this) unnamed_addr #4 comdat align 2 {
entry:
  %this.addr = alloca ptr, align 8
  store ptr %this, ptr %this.addr, align 8
  %this1 = load ptr, ptr %this.addr, align 8
  %_M_pi = getelementptr inbounds %"class.std::__weak_count", ptr %this1, i32 0, i32 0
  %0 = load ptr, ptr %_M_pi, align 8
  %cmp = icmp ne ptr %0, null
  br i1 %cmp, label %if.then, label %if.end

if.then:                                          ; preds = %entry
  %_M_pi2 = getelementptr inbounds %"class.std::__weak_count", ptr %this1, i32 0, i32 0
  %1 = load ptr, ptr %_M_pi2, align 8
  call void @_ZNSt16_Sp_counted_baseILN9__gnu_cxx12_Lock_policyE2EE15_M_weak_releaseEv(ptr noundef nonnull align 8 dereferenceable(16) %1) #3
  br label %if.end

if.end:                                           ; preds = %if.then, %entry
  ret void
}

; Function Attrs: mustprogress nounwind uwtable
define internal void @_ZNSt10__weak_ptrIN4node12_GLOBAL__N_110EmptyEntry11EmptyReaderELN9__gnu_cxx12_Lock_policyE2EED2Ev(ptr noundef nonnull align 8 dereferenceable(16) %this) unnamed_addr #4 align 2 {
entry:
  %this.addr = alloca ptr, align 8
  store ptr %this, ptr %this.addr, align 8
  %this1 = load ptr, ptr %this.addr, align 8
  %_M_refcount = getelementptr inbounds %"class.std::__weak_ptr.627", ptr %this1, i32 0, i32 1
  call void @_ZNSt12__weak_countILN9__gnu_cxx12_Lock_policyE2EED2Ev(ptr noundef nonnull align 8 dereferenceable(8) %_M_refcount) #3
  ret void
}

; Function Attrs: mustprogress nounwind uwtable
define linkonce_odr dso_local void @_ZN4node14MemoryRetainerD2Ev(ptr noundef nonnull align 8 dereferenceable(8) %this) unnamed_addr #4 comdat align 2 {
entry:
  %this.addr = alloca ptr, align 8
  store ptr %this, ptr %this.addr, align 8
  ret void
}

; Function Attrs: mustprogress nounwind uwtable
define linkonce_odr dso_local void @_ZN4node3bob6SourceINS_9DataQueue3VecEED2Ev(ptr noundef nonnull align 8 dereferenceable(8) %this) unnamed_addr #4 comdat align 2 {
entry:
  %this.addr = alloca ptr, align 8
  store ptr %this, ptr %this.addr, align 8
  ret void
}

; Function Attrs: mustprogress nounwind uwtable
define internal void @_ZNSt8weak_ptrIN4node12_GLOBAL__N_110EmptyEntry11EmptyReaderEED2Ev(ptr noundef nonnull align 8 dereferenceable(16) %this) unnamed_addr #4 align 2 {
entry:
  %this.addr = alloca ptr, align 8
  store ptr %this, ptr %this.addr, align 8
  %this1 = load ptr, ptr %this.addr, align 8
  call void @_ZNSt10__weak_ptrIN4node12_GLOBAL__N_110EmptyEntry11EmptyReaderELN9__gnu_cxx12_Lock_policyE2EED2Ev(ptr noundef nonnull align 8 dereferenceable(16) %this1) #3
  ret void
}

; Function Attrs: mustprogress nounwind uwtable
define linkonce_odr dso_local void @_ZN4node9DataQueue6ReaderD2Ev(ptr noundef nonnull align 8 dereferenceable(16) %this) unnamed_addr #4 comdat align 2 {
entry:
  %this.addr = alloca ptr, align 8
  store ptr %this, ptr %this.addr, align 8
  %this1 = load ptr, ptr %this.addr, align 8
  %0 = getelementptr inbounds i8, ptr %this1, i64 8
  call void @_ZN4node3bob6SourceINS_9DataQueue3VecEED2Ev(ptr noundef nonnull align 8 dereferenceable(8) %0) #3
  call void @_ZN4node14MemoryRetainerD2Ev(ptr noundef nonnull align 8 dereferenceable(8) %this1) #3
  ret void
}

; Function Attrs: mustprogress nounwind uwtable
define internal void @_ZNSt23enable_shared_from_thisIN4node12_GLOBAL__N_110EmptyEntry11EmptyReaderEED2Ev(ptr noundef nonnull align 8 dereferenceable(16) %this) unnamed_addr #4 align 2 {
entry:
  %this.addr = alloca ptr, align 8
  store ptr %this, ptr %this.addr, align 8
  %this1 = load ptr, ptr %this.addr, align 8
  %_M_weak_this = getelementptr inbounds %"class.std::enable_shared_from_this.625", ptr %this1, i32 0, i32 0
  call void @_ZNSt8weak_ptrIN4node12_GLOBAL__N_110EmptyEntry11EmptyReaderEED2Ev(ptr noundef nonnull align 8 dereferenceable(16) %_M_weak_this) #3
  ret void
}

; Function Attrs: mustprogress nounwind uwtable
define internal void @_ZN4node12_GLOBAL__N_110EmptyEntry11EmptyReaderD2Ev(ptr noundef nonnull align 8 dereferenceable(40) %this) unnamed_addr #4 align 2 {
entry:
  %this.addr = alloca ptr, align 8
  store ptr %this, ptr %this.addr, align 8
  %this1 = load ptr, ptr %this.addr, align 8
  %0 = getelementptr inbounds i8, ptr %this1, i64 16
  call void @_ZNSt23enable_shared_from_thisIN4node12_GLOBAL__N_110EmptyEntry11EmptyReaderEED2Ev(ptr noundef nonnull align 8 dereferenceable(16) %0) #3
  call void @_ZN4node9DataQueue6ReaderD2Ev(ptr noundef nonnull align 8 dereferenceable(16) %this1) #3
  ret void
}

; Function Attrs: mustprogress nounwind uwtable
define internal noundef ptr @_ZN9__gnu_cxx16__aligned_bufferIN4node12_GLOBAL__N_110EmptyEntry11EmptyReaderEE7_M_addrEv(ptr noundef nonnull align 8 dereferenceable(40) %this) #4 align 2 {
entry:
  %this.addr = alloca ptr, align 8
  store ptr %this, ptr %this.addr, align 8
  %this1 = load ptr, ptr %this.addr, align 8
  %_M_storage = getelementptr inbounds %"struct.__gnu_cxx::__aligned_buffer.622", ptr %this1, i32 0, i32 0
  ret ptr %_M_storage
}

; Function Attrs: mustprogress nounwind uwtable
define internal void @_ZSt8_DestroyIN4node12_GLOBAL__N_110EmptyEntry11EmptyReaderEEvPT_(ptr noundef %__pointer) #4 {
entry:
  %__pointer.addr = alloca ptr, align 8
  store ptr %__pointer, ptr %__pointer.addr, align 8
  %0 = load ptr, ptr %__pointer.addr, align 8
  call void @_ZN4node12_GLOBAL__N_110EmptyEntry11EmptyReaderD2Ev(ptr noundef nonnull align 8 dereferenceable(40) %0) #3
  ret void
}

; Function Attrs: mustprogress nounwind uwtable
define internal noundef ptr @_ZN9__gnu_cxx16__aligned_bufferIN4node12_GLOBAL__N_110EmptyEntry11EmptyReaderEE6_M_ptrEv(ptr noundef nonnull align 8 dereferenceable(40) %this) #4 align 2 {
entry:
  %this.addr = alloca ptr, align 8
  store ptr %this, ptr %this.addr, align 8
  %this1 = load ptr, ptr %this.addr, align 8
  %call = call noundef ptr @_ZN9__gnu_cxx16__aligned_bufferIN4node12_GLOBAL__N_110EmptyEntry11EmptyReaderEE7_M_addrEv(ptr noundef nonnull align 8 dereferenceable(40) %this1) #3
  ret ptr %call
}

; Function Attrs: mustprogress nounwind uwtable
define linkonce_odr dso_local noundef nonnull align 1 dereferenceable(1) ptr @_ZNSt14_Sp_ebo_helperILi0ESaIvELb1EE6_S_getERS1_(ptr noundef nonnull align 1 dereferenceable(1) %__eboh) #4 comdat align 2 {
entry:
  %__eboh.addr = alloca ptr, align 8
  store ptr %__eboh, ptr %__eboh.addr, align 8
  %0 = load ptr, ptr %__eboh.addr, align 8
  ret ptr %0
}

; Function Attrs: mustprogress nounwind uwtable
define internal void @_ZNSt16allocator_traitsISaIvEE7destroyIN4node12_GLOBAL__N_110EmptyEntry11EmptyReaderEEEvRS0_PT_(ptr noundef nonnull align 1 dereferenceable(1) %0, ptr noundef %__p) #4 align 2 {
entry:
  %.addr = alloca ptr, align 8
  %__p.addr = alloca ptr, align 8
  store ptr %0, ptr %.addr, align 8
  store ptr %__p, ptr %__p.addr, align 8
  %1 = load ptr, ptr %__p.addr, align 8
  call void @_ZSt8_DestroyIN4node12_GLOBAL__N_110EmptyEntry11EmptyReaderEEvPT_(ptr noundef %1)
  ret void
}

; Function Attrs: mustprogress nounwind uwtable
define internal noundef ptr @_ZNSt23_Sp_counted_ptr_inplaceIN4node12_GLOBAL__N_110EmptyEntry11EmptyReaderESaIvELN9__gnu_cxx12_Lock_policyE2EE6_M_ptrEv(ptr noundef nonnull align 8 dereferenceable(56) %this) #4 align 2 {
entry:
  %this.addr = alloca ptr, align 8
  store ptr %this, ptr %this.addr, align 8
  %this1 = load ptr, ptr %this.addr, align 8
  %_M_impl = getelementptr inbounds %"class.std::_Sp_counted_ptr_inplace.621", ptr %this1, i32 0, i32 1
  %_M_storage = getelementptr inbounds %"class.std::_Sp_counted_ptr_inplace<node::(anonymous namespace)::EmptyEntry::EmptyReader, std::allocator<void>, __gnu_cxx::_S_atomic>::_Impl", ptr %_M_impl, i32 0, i32 0
  %call = call noundef ptr @_ZN9__gnu_cxx16__aligned_bufferIN4node12_GLOBAL__N_110EmptyEntry11EmptyReaderEE6_M_ptrEv(ptr noundef nonnull align 8 dereferenceable(40) %_M_storage) #3
  ret ptr %call
}

; Function Attrs: mustprogress nounwind uwtable
define internal noundef nonnull align 1 dereferenceable(1) ptr @_ZNSt23_Sp_counted_ptr_inplaceIN4node12_GLOBAL__N_110EmptyEntry11EmptyReaderESaIvELN9__gnu_cxx12_Lock_policyE2EE5_Impl8_M_allocEv(ptr noundef nonnull align 8 dereferenceable(40) %this) #4 align 2 {
entry:
  %this.addr = alloca ptr, align 8
  store ptr %this, ptr %this.addr, align 8
  %this1 = load ptr, ptr %this.addr, align 8
  %call = call noundef nonnull align 1 dereferenceable(1) ptr @_ZNSt14_Sp_ebo_helperILi0ESaIvELb1EE6_S_getERS1_(ptr noundef nonnull align 1 dereferenceable(1) %this1)
  ret ptr %call
}

; Function Attrs: mustprogress nounwind uwtable
define internal void @_ZNSt23_Sp_counted_ptr_inplaceIN4node12_GLOBAL__N_110EmptyEntry11EmptyReaderESaIvELN9__gnu_cxx12_Lock_policyE2EE10_M_disposeEv(ptr noundef nonnull align 8 dereferenceable(56) %this) unnamed_addr #4 align 2 {
entry:
  %this.addr = alloca ptr, align 8
  store ptr %this, ptr %this.addr, align 8
  %this1 = load ptr, ptr %this.addr, align 8
  %_M_impl = getelementptr inbounds %"class.std::_Sp_counted_ptr_inplace.621", ptr %this1, i32 0, i32 1
  %call = call noundef nonnull align 1 dereferenceable(1) ptr @_ZNSt23_Sp_counted_ptr_inplaceIN4node12_GLOBAL__N_110EmptyEntry11EmptyReaderESaIvELN9__gnu_cxx12_Lock_policyE2EE5_Impl8_M_allocEv(ptr noundef nonnull align 8 dereferenceable(40) %_M_impl) #3
  %call2 = call noundef ptr @_ZNSt23_Sp_counted_ptr_inplaceIN4node12_GLOBAL__N_110EmptyEntry11EmptyReaderESaIvELN9__gnu_cxx12_Lock_policyE2EE6_M_ptrEv(ptr noundef nonnull align 8 dereferenceable(56) %this1) #3
  call void @_ZNSt16allocator_traitsISaIvEE7destroyIN4node12_GLOBAL__N_110EmptyEntry11EmptyReaderEEEvRS0_PT_(ptr noundef nonnull align 1 dereferenceable(1) %call, ptr noundef %call2) #3
  ret void
}